target datalayout = "e-m:e-p270:32:32-p271:32:32-p272:64:64-i64:64-i128:128-f80:128-n8:16:32:64-S128"
target triple = "x86_64-pc-linux-gnu"

%struct.RelFileLocator = type { i32, i32, i32 }
%struct.BlockRefTableBuffer = type { ptr, ptr, [65536 x i8], i32, i32, i32 }
%struct.BlockRefTableSerializedEntry = type { %struct.RelFileLocator, i32, i32, i32 }
%struct.BlockRefTableReader = type { %struct.BlockRefTableBuffer, ptr, ptr, ptr, i32, i32, ptr, [4096 x i16], i32 }

@.str.1 = private unnamed_addr constant [56 x i8] c"file \22%s\22 has wrong checksum: expected %08X, found %08X\00", align 1

; Function Attrs: nounwind uwtable
define dso_local zeroext i1 @BlockRefTableReaderNextRelation(ptr noundef %0, ptr noundef %1, ptr noundef %2, ptr noundef %3) #0 {
  %5 = alloca i1, align 1
  %6 = alloca ptr, align 8
  %7 = alloca ptr, align 8
  %8 = alloca ptr, align 8
  %9 = alloca ptr, align 8
  %10 = alloca %struct.BlockRefTableSerializedEntry, align 4
  %11 = alloca %struct.BlockRefTableSerializedEntry, align 4
  %12 = alloca i32, align 4
  %13 = alloca i32, align 4
  %14 = alloca i32, align 4
  store ptr %0, ptr %6, align 8
  store ptr %1, ptr %7, align 8
  store ptr %2, ptr %8, align 8
  store ptr %3, ptr %9, align 8
  call void @llvm.lifetime.start.p0(i64 24, ptr %10) #10
  call void @llvm.lifetime.start.p0(i64 24, ptr %11) #10
  call void @llvm.memset.p0.i64(ptr align 4 %11, i8 0, i64 24, i1 false)
  %15 = load ptr, ptr %6, align 8
  call void @BlockRefTableRead(ptr noundef %15, ptr noundef %10, i32 noundef 24)
  %16 = call i32 @memcmp(ptr noundef %10, ptr noundef %11, i64 noundef 24) #11
  %17 = icmp eq i32 %16, 0
  br i1 %17, label %18, label %42

18:                                               ; preds = %4
  call void @llvm.lifetime.start.p0(i64 4, ptr %12) #10
  call void @llvm.lifetime.start.p0(i64 4, ptr %13) #10
  %19 = load ptr, ptr %6, align 8
  %20 = getelementptr inbounds nuw %struct.BlockRefTableReader, ptr %19, i32 0, i32 0
  %21 = getelementptr inbounds nuw %struct.BlockRefTableBuffer, ptr %20, i32 0, i32 5
  %22 = load i32, ptr %21, align 8
  store i32 %22, ptr %12, align 4
  %23 = load i32, ptr %12, align 4
  %24 = xor i32 %23, -1
  store i32 %24, ptr %12, align 4
  %25 = load ptr, ptr %6, align 8
  call void @BlockRefTableRead(ptr noundef %25, ptr noundef %13, i32 noundef 4)
  %26 = load i32, ptr %12, align 4
  %27 = load i32, ptr %13, align 4
  %28 = icmp eq i32 %26, %27
  br i1 %28, label %41, label %29

29:                                               ; preds = %18
  %30 = load ptr, ptr %6, align 8
  %31 = getelementptr inbounds nuw %struct.BlockRefTableReader, ptr %30, i32 0, i32 2
  %32 = load ptr, ptr %31, align 8
  %33 = load ptr, ptr %6, align 8
  %34 = getelementptr inbounds nuw %struct.BlockRefTableReader, ptr %33, i32 0, i32 3
  %35 = load ptr, ptr %34, align 8
  %36 = load ptr, ptr %6, align 8
  %37 = getelementptr inbounds nuw %struct.BlockRefTableReader, ptr %36, i32 0, i32 1
  %38 = load ptr, ptr %37, align 8
  %39 = load i32, ptr %12, align 4
  %40 = load i32, ptr %13, align 4
  call void (ptr, ptr, ...) %32(ptr noundef %35, ptr noundef @.str.1, ptr noundef %38, i32 noundef %39, i32 noundef %40)
  br label %41

41:                                               ; preds = %29, %18
  store i1 false, ptr %5, align 1
  store i32 1, ptr %14, align 4
  call void @llvm.lifetime.end.p0(i64 4, ptr %13) #10
  call void @llvm.lifetime.end.p0(i64 4, ptr %12) #10
  br label %82

42:                                               ; preds = %4
  %43 = load ptr, ptr %6, align 8
  %44 = getelementptr inbounds nuw %struct.BlockRefTableReader, ptr %43, i32 0, i32 6
  %45 = load ptr, ptr %44, align 8
  %46 = icmp ne ptr %45, null
  br i1 %46, label %47, label %51

47:                                               ; preds = %42
  %48 = load ptr, ptr %6, align 8
  %49 = getelementptr inbounds nuw %struct.BlockRefTableReader, ptr %48, i32 0, i32 6
  %50 = load ptr, ptr %49, align 8
  call void @pfree(ptr noundef %50)
  br label %51

51:                                               ; preds = %47, %42
  %52 = getelementptr inbounds nuw %struct.BlockRefTableSerializedEntry, ptr %10, i32 0, i32 3
  %53 = load i32, ptr %52, align 4
  %54 = zext i32 %53 to i64
  %55 = mul i64 %54, 2
  %56 = call ptr @palloc(i64 noundef %55)
  %57 = load ptr, ptr %6, align 8
  %58 = getelementptr inbounds nuw %struct.BlockRefTableReader, ptr %57, i32 0, i32 6
  store ptr %56, ptr %58, align 8
  %59 = load ptr, ptr %6, align 8
  %60 = load ptr, ptr %6, align 8
  %61 = getelementptr inbounds nuw %struct.BlockRefTableReader, ptr %60, i32 0, i32 6
  %62 = load ptr, ptr %61, align 8
  %63 = getelementptr inbounds nuw %struct.BlockRefTableSerializedEntry, ptr %10, i32 0, i32 3
  %64 = load i32, ptr %63, align 4
  %65 = zext i32 %64 to i64
  %66 = mul i64 %65, 2
  %67 = trunc i64 %66 to i32
  call void @BlockRefTableRead(ptr noundef %59, ptr noundef %62, i32 noundef %67)
  %68 = getelementptr inbounds nuw %struct.BlockRefTableSerializedEntry, ptr %10, i32 0, i32 3
  %69 = load i32, ptr %68, align 4
  %70 = load ptr, ptr %6, align 8
  %71 = getelementptr inbounds nuw %struct.BlockRefTableReader, ptr %70, i32 0, i32 4
  store i32 %69, ptr %71, align 8
  %72 = load ptr, ptr %6, align 8
  %73 = getelementptr inbounds nuw %struct.BlockRefTableReader, ptr %72, i32 0, i32 5
  store i32 0, ptr %73, align 4
  %74 = load ptr, ptr %7, align 8
  %75 = getelementptr inbounds nuw %struct.BlockRefTableSerializedEntry, ptr %10, i32 0, i32 0
  call void @llvm.memcpy.p0.p0.i64(ptr align 4 %74, ptr align 4 %75, i64 12, i1 false)
  %76 = getelementptr inbounds nuw %struct.BlockRefTableSerializedEntry, ptr %10, i32 0, i32 1
  %77 = load i32, ptr %76, align 4
  %78 = load ptr, ptr %8, align 8
  store i32 %77, ptr %78, align 4
  %79 = getelementptr inbounds nuw %struct.BlockRefTableSerializedEntry, ptr %10, i32 0, i32 2
  %80 = load i32, ptr %79, align 4
  %81 = load ptr, ptr %9, align 8
  store i32 %80, ptr %81, align 4
  store i1 true, ptr %5, align 1
  store i32 1, ptr %14, align 4
  br label %82

82:                                               ; preds = %51, %41
  call void @llvm.lifetime.end.p0(i64 24, ptr %11) #10
  call void @llvm.lifetime.end.p0(i64 24, ptr %10) #10
  %83 = load i1, ptr %5, align 1
  ret i1 %83
}