; Function Attrs: nounwind uwtable
define dso_local noundef zeroext i1 @BlockRefTableReaderNextRelation(ptr noundef %0, ptr noundef writeonly captures(none) %1, ptr noundef writeonly captures(none) %2, ptr noundef writeonly captures(none) %3) local_unnamed_addr #0 {
  %5 = alloca %struct.BlockRefTableSerializedEntry, align 4
  %6 = alloca %struct.BlockRefTableSerializedEntry, align 4
  %7 = alloca i32, align 4
  call void @llvm.lifetime.start.p0(i64 24, ptr nonnull %5) #14
  call void @llvm.lifetime.start.p0(i64 24, ptr nonnull %6) #14
  call void @llvm.memset.p0.i64(ptr noundef nonnull align 4 dereferenceable(24) %6, i8 0, i64 24, i1 false)
  call fastcc void @BlockRefTableRead(ptr noundef %0, ptr noundef nonnull %5, i32 noundef 24)
  %bcmp = call i32 @bcmp(ptr noundef nonnull dereferenceable(24) %5, ptr noundef nonnull dereferenceable(24) %6, i64 24)
  %8 = icmp ne i32 %bcmp, 0
  br i1 %8, label %23, label %9

9:                                                ; preds = %4
  call void @llvm.lifetime.start.p0(i64 4, ptr nonnull %7) #14
  %10 = getelementptr inbounds nuw i8, ptr %0, i64 65560
  %11 = load i32, ptr %10, align 8
  %12 = xor i32 %11, -1
  call fastcc void @BlockRefTableRead(ptr noundef %0, ptr noundef nonnull %7, i32 noundef 4)
  %13 = load i32, ptr %7, align 4
  %14 = icmp eq i32 %13, %12
  br i1 %14, label %22, label %15

15:                                               ; preds = %9
  %16 = getelementptr inbounds nuw i8, ptr %0, i64 65576
  %17 = load ptr, ptr %16, align 8
  %18 = getelementptr inbounds nuw i8, ptr %0, i64 65584
  %19 = load ptr, ptr %18, align 8
  %20 = getelementptr inbounds nuw i8, ptr %0, i64 65568
  %21 = load ptr, ptr %20, align 8
  call void (ptr, ptr, ...) %17(ptr noundef %19, ptr noundef nonnull @.str.1, ptr noundef %21, i32 noundef %12, i32 noundef %13) #14
  br label %22

22:                                               ; preds = %15, %9
  call void @llvm.lifetime.end.p0(i64 4, ptr nonnull %7) #14
  br label %42

23:                                               ; preds = %4
  %24 = getelementptr inbounds nuw i8, ptr %0, i64 65600
  %25 = load ptr, ptr %24, align 8
  %.not = icmp eq ptr %25, null
  br i1 %.not, label %27, label %26

26:                                               ; preds = %23
  call void @pfree(ptr noundef nonnull %25) #14
  br label %27

27:                                               ; preds = %26, %23
  %28 = getelementptr inbounds nuw i8, ptr %5, i64 20
  %29 = load i32, ptr %28, align 4
  %30 = zext i32 %29 to i64
  %31 = shl nuw nsw i64 %30, 1
  %32 = call ptr @palloc(i64 noundef %31) #14
  store ptr %32, ptr %24, align 8
  %33 = load i32, ptr %28, align 4
  %34 = shl i32 %33, 1
  call fastcc void @BlockRefTableRead(ptr noundef nonnull %0, ptr noundef %32, i32 noundef %34)
  %35 = load i32, ptr %28, align 4
  %36 = getelementptr inbounds nuw i8, ptr %0, i64 65592
  store i32 %35, ptr %36, align 8
  %37 = getelementptr inbounds nuw i8, ptr %0, i64 65596
  store i32 0, ptr %37, align 4
  call void @llvm.memcpy.p0.p0.i64(ptr noundef nonnull align 4 dereferenceable(12) %1, ptr noundef nonnull align 4 dereferenceable(12) %5, i64 12, i1 false)
  %38 = getelementptr inbounds nuw i8, ptr %5, i64 12
  %39 = load i32, ptr %38, align 4
  store i32 %39, ptr %2, align 4
  %40 = getelementptr inbounds nuw i8, ptr %5, i64 16
  %41 = load i32, ptr %40, align 4
  store i32 %41, ptr %3, align 4
  br label %42

42:                                               ; preds = %27, %22
  call void @llvm.lifetime.end.p0(i64 24, ptr nonnull %6) #14
  call void @llvm.lifetime.end.p0(i64 24, ptr nonnull %5) #14
  ret i1 %8
}